; Function Attrs: nounwind uwtable
define hidden i32 @phpdbg_create_var_watchpoint(ptr noundef %0, i64 noundef %1) local_unnamed_addr #0 {
  %3 = tail call i32 @phpdbg_rebuild_symtable() #17
  %4 = icmp eq i32 %3, -1
  br i1 %4, label %7, label %5

5:                                                ; preds = %2
  %6 = tail call fastcc i32 @phpdbg_watchpoint_parse_symtables(ptr noundef %0, i64 noundef %1, ptr noundef nonnull @phpdbg_create_simple_watchpoint)
  br label %7

7:                                                ; preds = %2, %5
  %.0 = phi i32 [ %6, %5 ], [ -1, %2 ]
  ret i32 %.0
}